target datalayout = "e-m:e-p270:32:32-p271:32:32-p272:64:64-i64:64-i128:128-f80:128-n8:16:32:64-S128"
target triple = "x86_64-pc-linux-gnu"

; Function Attrs: nounwind sspstrong uwtable
define hidden i32 @FLAC__bitreader_read_utf8_uint64(ptr noundef %0, ptr noundef %1, ptr noundef %2, ptr noundef %3) #0 {
  %5 = alloca i32, align 4
  %6 = alloca ptr, align 8
  %7 = alloca ptr, align 8
  %8 = alloca ptr, align 8
  %9 = alloca ptr, align 8
  %10 = alloca i64, align 8
  %11 = alloca i32, align 4
  %12 = alloca i32, align 4
  %13 = alloca i32, align 4
  store ptr %0, ptr %6, align 8, !tbaa !3
  store ptr %1, ptr %7, align 8, !tbaa !39
  store ptr %2, ptr %8, align 8, !tbaa !36
  store ptr %3, ptr %9, align 8, !tbaa !33
  call void @llvm.lifetime.start.p0(i64 8, ptr %10) #10
  store i64 0, ptr %10, align 8, !tbaa !28
  call void @llvm.lifetime.start.p0(i64 4, ptr %11) #10
  call void @llvm.lifetime.start.p0(i64 4, ptr %12) #10
  %14 = load ptr, ptr %6, align 8, !tbaa !3
  %15 = call i32 @FLAC__bitreader_read_raw_uint32(ptr noundef %14, ptr noundef %11, i32 noundef 8)
  %16 = icmp ne i32 %15, 0
  br i1 %16, label %18, label %17

17:                                               ; preds = %4
  store i32 0, ptr %5, align 4
  store i32 1, ptr %13, align 4
  br label %134

18:                                               ; preds = %4
  %19 = load ptr, ptr %8, align 8, !tbaa !36
  %20 = icmp ne ptr %19, null
  br i1 %20, label %21, label %30

21:                                               ; preds = %18
  %22 = load i32, ptr %11, align 4, !tbaa !32
  %23 = trunc i32 %22 to i8
  %24 = load ptr, ptr %8, align 8, !tbaa !36
  %25 = load ptr, ptr %9, align 8, !tbaa !33
  %26 = load i32, ptr %25, align 4, !tbaa !32
  %27 = add i32 %26, 1
  store i32 %27, ptr %25, align 4, !tbaa !32
  %28 = zext i32 %26 to i64
  %29 = getelementptr inbounds nuw i8, ptr %24, i64 %28
  store i8 %23, ptr %29, align 1, !tbaa !43
  br label %30

30:                                               ; preds = %21, %18
  %31 = load i32, ptr %11, align 4, !tbaa !32
  %32 = and i32 %31, 128
  %33 = icmp ne i32 %32, 0
  br i1 %33, label %37, label %34

34:                                               ; preds = %30
  %35 = load i32, ptr %11, align 4, !tbaa !32
  %36 = zext i32 %35 to i64
  store i64 %36, ptr %10, align 8, !tbaa !28
  store i32 0, ptr %12, align 4, !tbaa !32
  br label %89

37:                                               ; preds = %30
  %38 = load i32, ptr %11, align 4, !tbaa !32
  %39 = and i32 %38, 224
  %40 = icmp eq i32 %39, 192
  br i1 %40, label %41, label %45

41:                                               ; preds = %37
  %42 = load i32, ptr %11, align 4, !tbaa !32
  %43 = and i32 %42, 31
  %44 = zext i32 %43 to i64
  store i64 %44, ptr %10, align 8, !tbaa !28
  store i32 1, ptr %12, align 4, !tbaa !32
  br label %88

45:                                               ; preds = %37
  %46 = load i32, ptr %11, align 4, !tbaa !32
  %47 = and i32 %46, 240
  %48 = icmp eq i32 %47, 224
  br i1 %48, label %49, label %53

49:                                               ; preds = %45
  %50 = load i32, ptr %11, align 4, !tbaa !32
  %51 = and i32 %50, 15
  %52 = zext i32 %51 to i64
  store i64 %52, ptr %10, align 8, !tbaa !28
  store i32 2, ptr %12, align 4, !tbaa !32
  br label %87

53:                                               ; preds = %45
  %54 = load i32, ptr %11, align 4, !tbaa !32
  %55 = and i32 %54, 248
  %56 = icmp eq i32 %55, 240
  br i1 %56, label %57, label %61

57:                                               ; preds = %53
  %58 = load i32, ptr %11, align 4, !tbaa !32
  %59 = and i32 %58, 7
  %60 = zext i32 %59 to i64
  store i64 %60, ptr %10, align 8, !tbaa !28
  store i32 3, ptr %12, align 4, !tbaa !32
  br label %86

61:                                               ; preds = %53
  %62 = load i32, ptr %11, align 4, !tbaa !32
  %63 = and i32 %62, 252
  %64 = icmp eq i32 %63, 248
  br i1 %64, label %65, label %69

65:                                               ; preds = %61
  %66 = load i32, ptr %11, align 4, !tbaa !32
  %67 = and i32 %66, 3
  %68 = zext i32 %67 to i64
  store i64 %68, ptr %10, align 8, !tbaa !28
  store i32 4, ptr %12, align 4, !tbaa !32
  br label %85

69:                                               ; preds = %61
  %70 = load i32, ptr %11, align 4, !tbaa !32
  %71 = and i32 %70, 254
  %72 = icmp eq i32 %71, 252
  br i1 %72, label %73, label %77

73:                                               ; preds = %69
  %74 = load i32, ptr %11, align 4, !tbaa !32
  %75 = and i32 %74, 1
  %76 = zext i32 %75 to i64
  store i64 %76, ptr %10, align 8, !tbaa !28
  store i32 5, ptr %12, align 4, !tbaa !32
  br label %84

77:                                               ; preds = %69
  %78 = load i32, ptr %11, align 4, !tbaa !32
  %79 = icmp eq i32 %78, 254
  br i1 %79, label %80, label %81

80:                                               ; preds = %77
  store i64 0, ptr %10, align 8, !tbaa !28
  store i32 6, ptr %12, align 4, !tbaa !32
  br label %83

81:                                               ; preds = %77
  %82 = load ptr, ptr %7, align 8, !tbaa !39
  store i64 -1, ptr %82, align 8, !tbaa !28
  store i32 1, ptr %5, align 4
  store i32 1, ptr %13, align 4
  br label %134

83:                                               ; preds = %80
  br label %84

84:                                               ; preds = %83, %73
  br label %85

85:                                               ; preds = %84, %65
  br label %86

86:                                               ; preds = %85, %57
  br label %87

87:                                               ; preds = %86, %49
  br label %88

88:                                               ; preds = %87, %41
  br label %89

89:                                               ; preds = %88, %34
  br label %90

90:                                               ; preds = %128, %89
  %91 = load i32, ptr %12, align 4, !tbaa !32
  %92 = icmp ne i32 %91, 0
  br i1 %92, label %93, label %131

93:                                               ; preds = %90
  %94 = load ptr, ptr %6, align 8, !tbaa !3
  %95 = call i32 @FLAC__bitreader_read_raw_uint32(ptr noundef %94, ptr noundef %11, i32 noundef 8)
  %96 = icmp ne i32 %95, 0
  br i1 %96, label %98, label %97

97:                                               ; preds = %93
  store i32 0, ptr %5, align 4
  store i32 1, ptr %13, align 4
  br label %134

98:                                               ; preds = %93
  %99 = load ptr, ptr %8, align 8, !tbaa !36
  %100 = icmp ne ptr %99, null
  br i1 %100, label %101, label %110

101:                                              ; preds = %98
  %102 = load i32, ptr %11, align 4, !tbaa !32
  %103 = trunc i32 %102 to i8
  %104 = load ptr, ptr %8, align 8, !tbaa !36
  %105 = load ptr, ptr %9, align 8, !tbaa !33
  %106 = load i32, ptr %105, align 4, !tbaa !32
  %107 = add i32 %106, 1
  store i32 %107, ptr %105, align 4, !tbaa !32
  %108 = zext i32 %106 to i64
  %109 = getelementptr inbounds nuw i8, ptr %104, i64 %108
  store i8 %103, ptr %109, align 1, !tbaa !43
  br label %110

110:                                              ; preds = %101, %98
  %111 = load i32, ptr %11, align 4, !tbaa !32
  %112 = and i32 %111, 128
  %113 = icmp ne i32 %112, 0
  br i1 %113, label %114, label %118

114:                                              ; preds = %110
  %115 = load i32, ptr %11, align 4, !tbaa !32
  %116 = and i32 %115, 64
  %117 = icmp ne i32 %116, 0
  br i1 %117, label %118, label %120

118:                                              ; preds = %114, %110
  %119 = load ptr, ptr %7, align 8, !tbaa !39
  store i64 -1, ptr %119, align 8, !tbaa !28
  store i32 1, ptr %5, align 4
  store i32 1, ptr %13, align 4
  br label %134

120:                                              ; preds = %114
  %121 = load i64, ptr %10, align 8, !tbaa !28
  %122 = shl i64 %121, 6
  store i64 %122, ptr %10, align 8, !tbaa !28
  %123 = load i32, ptr %11, align 4, !tbaa !32
  %124 = and i32 %123, 63
  %125 = zext i32 %124 to i64
  %126 = load i64, ptr %10, align 8, !tbaa !28
  %127 = or i64 %126, %125
  store i64 %127, ptr %10, align 8, !tbaa !28
  br label %128

128:                                              ; preds = %120
  %129 = load i32, ptr %12, align 4, !tbaa !32
  %130 = add i32 %129, -1
  store i32 %130, ptr %12, align 4, !tbaa !32
  br label %90, !llvm.loop !57

131:                                              ; preds = %90
  %132 = load i64, ptr %10, align 8, !tbaa !28
  %133 = load ptr, ptr %7, align 8, !tbaa !39
  store i64 %132, ptr %133, align 8, !tbaa !28
  store i32 1, ptr %5, align 4
  store i32 1, ptr %13, align 4
  br label %134

134:                                              ; preds = %131, %118, %97, %81, %17
  call void @llvm.lifetime.end.p0(i64 4, ptr %12) #10
  call void @llvm.lifetime.end.p0(i64 4, ptr %11) #10
  call void @llvm.lifetime.end.p0(i64 8, ptr %10) #10
  %135 = load i32, ptr %5, align 4
  ret i32 %135
}