; Function Attrs: nounwind sspstrong uwtable
define hidden range(i32 0, 2) i32 @FLAC__bitreader_read_utf8_uint64(ptr noundef captures(none) %0, ptr noundef writeonly captures(none) %1, ptr noundef writeonly %2, ptr noundef captures(none) %3) local_unnamed_addr #9 {
  %5 = alloca i32, align 4
  call void @llvm.lifetime.start.p0(i64 4, ptr nonnull %5) #21
  %6 = call i32 @FLAC__bitreader_read_raw_uint32(ptr noundef %0, ptr noundef nonnull %5, i32 noundef 8)
  %.not = icmp eq i32 %6, 0
  br i1 %.not, label %.loopexit, label %7

7:                                                ; preds = %4
  %.not21 = icmp eq ptr %2, null
  %.pre = load i32, ptr %5, align 4, !tbaa !30
  br i1 %.not21, label %14, label %8

8:                                                ; preds = %7
  %9 = trunc i32 %.pre to i8
  %10 = load i32, ptr %3, align 4, !tbaa !30
  %11 = add i32 %10, 1
  store i32 %11, ptr %3, align 4, !tbaa !30
  %12 = zext i32 %10 to i64
  %13 = getelementptr inbounds nuw i8, ptr %2, i64 %12
  store i8 %9, ptr %13, align 1, !tbaa !36
  br label %14

14:                                               ; preds = %8, %7
  %15 = and i32 %.pre, 128
  %.not22 = icmp eq i32 %15, 0
  br i1 %.not22, label %43, label %16

16:                                               ; preds = %14
  %17 = and i32 %.pre, 224
  %18 = icmp eq i32 %17, 192
  br i1 %18, label %19, label %21

19:                                               ; preds = %16
  %20 = and i32 %.pre, 31
  br label %.lr.ph

21:                                               ; preds = %16
  %22 = and i32 %.pre, 240
  %23 = icmp eq i32 %22, 224
  br i1 %23, label %24, label %26

24:                                               ; preds = %21
  %25 = and i32 %.pre, 15
  br label %.lr.ph

26:                                               ; preds = %21
  %27 = and i32 %.pre, 248
  %28 = icmp eq i32 %27, 240
  br i1 %28, label %29, label %31

29:                                               ; preds = %26
  %30 = and i32 %.pre, 7
  br label %.lr.ph

31:                                               ; preds = %26
  %32 = and i32 %.pre, 252
  %33 = icmp eq i32 %32, 248
  br i1 %33, label %34, label %36

34:                                               ; preds = %31
  %35 = and i32 %.pre, 3
  br label %.lr.ph

36:                                               ; preds = %31
  %37 = and i32 %.pre, 254
  %38 = icmp eq i32 %37, 252
  br i1 %38, label %39, label %41

39:                                               ; preds = %36
  %40 = and i32 %.pre, 1
  br label %.lr.ph

41:                                               ; preds = %36
  %42 = icmp eq i32 %.pre, 254
  br i1 %42, label %.lr.ph, label %.loopexit.sink.split

43:                                               ; preds = %14
  %.016 = zext i32 %.pre to i64
  br label %.loopexit.sink.split

.lr.ph:                                           ; preds = %41, %19, %29, %39, %34, %24
  %.016.shrunk.ph = phi i32 [ 0, %41 ], [ %40, %39 ], [ %35, %34 ], [ %30, %29 ], [ %25, %24 ], [ %20, %19 ]
  %.0.ph = phi i32 [ 6, %41 ], [ 5, %39 ], [ 4, %34 ], [ 3, %29 ], [ 2, %24 ], [ 1, %19 ]
  %.01638 = zext nneg i32 %.016.shrunk.ph to i64
  br i1 %.not21, label %.lr.ph.split.us, label %.lr.ph.split

.lr.ph.split.us:                                  ; preds = %.lr.ph, %48
  %.131.us = phi i32 [ %53, %48 ], [ %.0.ph, %.lr.ph ]
  %.11730.us = phi i64 [ %52, %48 ], [ %.01638, %.lr.ph ]
  %44 = call i32 @FLAC__bitreader_read_raw_uint32(ptr noundef %0, ptr noundef nonnull %5, i32 noundef 8)
  %.not24.us = icmp eq i32 %44, 0
  br i1 %.not24.us, label %.loopexit, label %45

45:                                               ; preds = %.lr.ph.split.us
  %46 = load i32, ptr %5, align 4, !tbaa !30
  %47 = and i32 %46, 192
  %or.cond.us = icmp eq i32 %47, 128
  br i1 %or.cond.us, label %48, label %.loopexit.sink.split

48:                                               ; preds = %45
  %49 = shl i64 %.11730.us, 6
  %50 = and i32 %46, 63
  %51 = zext nneg i32 %50 to i64
  %52 = or disjoint i64 %49, %51
  %53 = add nsw i32 %.131.us, -1
  %.not23.us = icmp eq i32 %53, 0
  br i1 %.not23.us, label %.loopexit.sink.split, label %.lr.ph.split.us, !llvm.loop !49

.lr.ph.split:                                     ; preds = %.lr.ph, %63
  %.131 = phi i32 [ %68, %63 ], [ %.0.ph, %.lr.ph ]
  %.11730 = phi i64 [ %67, %63 ], [ %.01638, %.lr.ph ]
  %54 = call i32 @FLAC__bitreader_read_raw_uint32(ptr noundef %0, ptr noundef nonnull %5, i32 noundef 8)
  %.not24 = icmp eq i32 %54, 0
  br i1 %.not24, label %.loopexit, label %55

55:                                               ; preds = %.lr.ph.split
  %56 = load i32, ptr %5, align 4, !tbaa !30
  %57 = trunc i32 %56 to i8
  %58 = load i32, ptr %3, align 4, !tbaa !30
  %59 = add i32 %58, 1
  store i32 %59, ptr %3, align 4, !tbaa !30
  %60 = zext i32 %58 to i64
  %61 = getelementptr inbounds nuw i8, ptr %2, i64 %60
  store i8 %57, ptr %61, align 1, !tbaa !36
  %62 = and i32 %56, 192
  %or.cond = icmp eq i32 %62, 128
  br i1 %or.cond, label %63, label %.loopexit.sink.split

63:                                               ; preds = %55
  %64 = shl i64 %.11730, 6
  %65 = and i32 %56, 63
  %66 = zext nneg i32 %65 to i64
  %67 = or disjoint i64 %64, %66
  %68 = add nsw i32 %.131, -1
  %.not23 = icmp eq i32 %68, 0
  br i1 %.not23, label %.loopexit.sink.split, label %.lr.ph.split, !llvm.loop !49

.loopexit.sink.split:                             ; preds = %63, %55, %48, %45, %43, %41
  %.117.lcssa.sink = phi i64 [ -1, %41 ], [ %.016, %43 ], [ -1, %45 ], [ %52, %48 ], [ -1, %55 ], [ %67, %63 ]
  store i64 %.117.lcssa.sink, ptr %1, align 8, !tbaa !21
  br label %.loopexit

.loopexit:                                        ; preds = %.lr.ph.split, %.lr.ph.split.us, %.loopexit.sink.split, %4
  %.018 = phi i32 [ 0, %4 ], [ 1, %.loopexit.sink.split ], [ 0, %.lr.ph.split.us ], [ 0, %.lr.ph.split ]
  call void @llvm.lifetime.end.p0(i64 4, ptr nonnull %5) #21
  ret i32 %.018
}